target datalayout = "e-m:e-p270:32:32-p271:32:32-p272:64:64-i64:64-i128:128-f80:128-n8:16:32:64-S128"
target triple = "x86_64-pc-linux-gnu"

%struct.stat = type { i64, i64, i64, i32, i32, i32, i32, i64, i64, i64, i64, %struct.timespec, %struct.timespec, %struct.timespec, [3 x i64] }
%struct.timespec = type { i64, i64 }
%struct._zend_file_handle = type { %union.anon.8, ptr, ptr, i8, i8, i8, ptr, i64 }
%union.anon.8 = type { %struct._zend_stream }
%struct._zend_stream = type { ptr, i32, ptr, ptr, ptr }

@.str.13 = private unnamed_addr constant [2 x i8] c"r\00", align 1
@active_ini_hash = internal global ptr null, align 8
@is_special_section = internal global i32 0, align 4
@.str.20 = private unnamed_addr constant [7 x i8] c"%s%c%s\00", align 1

; Function Attrs: nounwind uwtable
define dso_local i32 @php_parse_user_ini_file(ptr noundef %0, ptr noundef %1, ptr noundef %2) #0 {
  %4 = alloca i32, align 4
  %5 = alloca ptr, align 8
  %6 = alloca ptr, align 8
  %7 = alloca ptr, align 8
  %8 = alloca %struct.stat, align 8
  %9 = alloca [4096 x i8], align 16
  %10 = alloca %struct._zend_file_handle, align 8
  %11 = alloca i32, align 4
  %12 = alloca i32, align 4
  store ptr %0, ptr %5, align 8, !tbaa !64
  store ptr %1, ptr %6, align 8, !tbaa !64
  store ptr %2, ptr %7, align 8, !tbaa !50
  call void @llvm.lifetime.start.p0(i64 144, ptr %8) #14
  call void @llvm.memset.p0.i64(ptr align 8 %8, i8 0, i64 144, i1 false)
  call void @llvm.lifetime.start.p0(i64 4096, ptr %9) #14
  %13 = getelementptr inbounds [4096 x i8], ptr %9, i64 0, i64 0
  %14 = load ptr, ptr %5, align 8, !tbaa !64
  %15 = load ptr, ptr %6, align 8, !tbaa !64
  %16 = call i32 (ptr, i64, ptr, ...) @ap_php_snprintf(ptr noundef %13, i64 noundef 4096, ptr noundef @.str.20, ptr noundef %14, i32 noundef 47, ptr noundef %15)
  %17 = getelementptr inbounds [4096 x i8], ptr %9, i64 0, i64 0
  %18 = call i32 @stat(ptr noundef %17, ptr noundef %8) #14
  %19 = icmp eq i32 %18, 0
  br i1 %19, label %20, label %45

20:                                               ; preds = %3
  %21 = getelementptr inbounds nuw %struct.stat, ptr %8, i32 0, i32 3
  %22 = load i32, ptr %21, align 8, !tbaa !86
  %23 = and i32 %22, 61440
  %24 = icmp eq i32 %23, 32768
  br i1 %24, label %25, label %44

25:                                               ; preds = %20
  call void @llvm.lifetime.start.p0(i64 80, ptr %10) #14
  call void @llvm.lifetime.start.p0(i64 4, ptr %11) #14
  store i32 -1, ptr %11, align 4, !tbaa !20
  %26 = getelementptr inbounds [4096 x i8], ptr %9, i64 0, i64 0
  %27 = call noalias ptr @fopen(ptr noundef %26, ptr noundef @.str.13)
  %28 = getelementptr inbounds [4096 x i8], ptr %9, i64 0, i64 0
  call void @zend_stream_init_fp(ptr noundef %10, ptr noundef %27, ptr noundef %28)
  %29 = getelementptr inbounds nuw %struct._zend_file_handle, ptr %10, i32 0, i32 0
  %30 = load ptr, ptr %29, align 8, !tbaa !51
  %31 = icmp ne ptr %30, null
  br i1 %31, label %32, label %42

32:                                               ; preds = %25
  br label %33

33:                                               ; preds = %32
  store ptr null, ptr @active_ini_hash, align 8, !tbaa !50
  store i32 0, ptr @is_special_section, align 4, !tbaa !20
  br label %34

34:                                               ; preds = %33
  br label %35

35:                                               ; preds = %34
  %36 = load ptr, ptr %7, align 8, !tbaa !50
  %37 = call i32 @zend_parse_ini_file(ptr noundef %10, i1 noundef zeroext true, i32 noundef 0, ptr noundef @php_ini_parser_cb, ptr noundef %36)
  store i32 %37, ptr %11, align 4, !tbaa !20
  %38 = load i32, ptr %11, align 4, !tbaa !20
  %39 = icmp eq i32 %38, 0
  br i1 %39, label %40, label %41

40:                                               ; preds = %35
  br label %41

41:                                               ; preds = %40, %35
  br label %42

42:                                               ; preds = %41, %25
  call void @zend_destroy_file_handle(ptr noundef %10)
  %43 = load i32, ptr %11, align 4, !tbaa !20
  store i32 %43, ptr %4, align 4
  store i32 1, ptr %12, align 4
  call void @llvm.lifetime.end.p0(i64 4, ptr %11) #14
  call void @llvm.lifetime.end.p0(i64 80, ptr %10) #14
  br label %46

44:                                               ; preds = %20
  br label %45

45:                                               ; preds = %44, %3
  store i32 -1, ptr %4, align 4
  store i32 1, ptr %12, align 4
  br label %46

46:                                               ; preds = %45, %42
  call void @llvm.lifetime.end.p0(i64 4096, ptr %9) #14
  call void @llvm.lifetime.end.p0(i64 144, ptr %8) #14
  %47 = load i32, ptr %4, align 4
  ret i32 %47
}