; Function Attrs: nounwind uwtable
define dso_local i32 @php_parse_user_ini_file(ptr noundef %0, ptr noundef %1, ptr noundef %2) local_unnamed_addr #0 {
  %4 = alloca %struct.stat, align 8
  %5 = alloca [4096 x i8], align 16
  %6 = alloca %struct._zend_file_handle, align 8
  call void @llvm.lifetime.start.p0(i64 144, ptr nonnull %4) #16
  call void @llvm.memset.p0.i64(ptr noundef nonnull align 8 dereferenceable(144) %4, i8 0, i64 144, i1 false)
  call void @llvm.lifetime.start.p0(i64 4096, ptr nonnull %5) #16
  %7 = call i32 (ptr, i64, ptr, ...) @ap_php_snprintf(ptr noundef nonnull %5, i64 noundef 4096, ptr noundef nonnull @.str.20, ptr noundef %0, i32 noundef 47, ptr noundef %1) #16
  %8 = call i32 @stat(ptr noundef nonnull %5, ptr noundef nonnull %4) #16
  %9 = icmp eq i32 %8, 0
  br i1 %9, label %10, label %21

10:                                               ; preds = %3
  %11 = getelementptr inbounds nuw i8, ptr %4, i64 24
  %12 = load i32, ptr %11, align 8, !tbaa !74
  %13 = and i32 %12, 61440
  %14 = icmp eq i32 %13, 32768
  br i1 %14, label %15, label %21

15:                                               ; preds = %10
  call void @llvm.lifetime.start.p0(i64 80, ptr nonnull %6) #16
  %16 = call noalias ptr @fopen(ptr noundef nonnull %5, ptr noundef nonnull @.str.13)
  call void @zend_stream_init_fp(ptr noundef nonnull %6, ptr noundef %16, ptr noundef nonnull %5) #16
  %17 = load ptr, ptr %6, align 8, !tbaa !47
  %.not = icmp eq ptr %17, null
  br i1 %.not, label %20, label %18

18:                                               ; preds = %15
  store ptr null, ptr @active_ini_hash, align 8, !tbaa !79
  store i1 false, ptr @is_special_section, align 4
  %19 = call i32 @zend_parse_ini_file(ptr noundef nonnull %6, i1 noundef zeroext true, i32 noundef 0, ptr noundef nonnull @php_ini_parser_cb, ptr noundef %2) #16
  br label %20

20:                                               ; preds = %18, %15
  %.0 = phi i32 [ %19, %18 ], [ -1, %15 ]
  call void @zend_destroy_file_handle(ptr noundef nonnull %6) #16
  call void @llvm.lifetime.end.p0(i64 80, ptr nonnull %6) #16
  br label %21

21:                                               ; preds = %3, %10, %20
  %.05 = phi i32 [ %.0, %20 ], [ -1, %10 ], [ -1, %3 ]
  call void @llvm.lifetime.end.p0(i64 4096, ptr nonnull %5) #16
  call void @llvm.lifetime.end.p0(i64 144, ptr nonnull %4) #16
  ret i32 %.05
}